; ModuleID = '4/2102.c'
source_filename = "4/2102.c"
target datalayout = "e-m:e-p270:32:32-p271:32:32-p272:64:64-i64:64-f80:128-n8:16:32:64-S128"
target triple = "x86_64-pc-linux-gnu"

@.str = private unnamed_addr constant [6 x i8] c"%d %d\00", align 1
@.str.1 = private unnamed_addr constant [3 x i8] c"%d\00", align 1
@.str.2 = private unnamed_addr constant [4 x i8] c"%d\0A\00", align 1

; Function Attrs: noinline nounwind uwtable
define dso_local void @main() #0 {
  %1 = alloca [101 x [101 x i32*]], align 16
  %2 = alloca i32, align 4
  %3 = alloca i32, align 4
  %4 = alloca i32, align 4
  %5 = alloca i32, align 4
  %6 = alloca i32, align 4
  %7 = alloca i32, align 4
  %8 = call i32 (i8*, ...) @__isoc99_scanf(i8* getelementptr inbounds ([6 x i8], [6 x i8]* @.str, i64 0, i64 0), i32* %3, i32* %2)
  store i32 1, i32* %4, align 4
  br label %9

9:                                                ; preds = %31, %0
  %10 = load i32, i32* %4, align 4
  %11 = load i32, i32* %3, align 4
  %12 = icmp sle i32 %10, %11
  br i1 %12, label %13, label %34

13:                                               ; preds = %9
  store i32 1, i32* %5, align 4
  br label %14

14:                                               ; preds = %27, %13
  %15 = load i32, i32* %5, align 4
  %16 = load i32, i32* %2, align 4
  %17 = icmp sle i32 %15, %16
  br i1 %17, label %18, label %30

18:                                               ; preds = %14
  %19 = call noalias i8* @malloc(i64 4) #3
  %20 = bitcast i8* %19 to i32*
  %21 = load i32, i32* %4, align 4
  %22 = sext i32 %21 to i64
  %23 = getelementptr inbounds [101 x [101 x i32*]], [101 x [101 x i32*]]* %1, i64 0, i64 %22
  %24 = load i32, i32* %5, align 4
  %25 = sext i32 %24 to i64
  %26 = getelementptr inbounds [101 x i32*], [101 x i32*]* %23, i64 0, i64 %25
  store i32* %20, i32** %26, align 8
  br label %27

27:                                               ; preds = %18
  %28 = load i32, i32* %5, align 4
  %29 = add nsw i32 %28, 1
  store i32 %29, i32* %5, align 4
  br label %14

30:                                               ; preds = %14
  br label %31

31:                                               ; preds = %30
  %32 = load i32, i32* %4, align 4
  %33 = add nsw i32 %32, 1
  store i32 %33, i32* %4, align 4
  br label %9

34:                                               ; preds = %9
  store i32 1, i32* %4, align 4
  br label %35

35:                                               ; preds = %57, %34
  %36 = load i32, i32* %4, align 4
  %37 = load i32, i32* %3, align 4
  %38 = icmp sle i32 %36, %37
  br i1 %38, label %39, label %60

39:                                               ; preds = %35
  store i32 1, i32* %5, align 4
  br label %40

40:                                               ; preds = %53, %39
  %41 = load i32, i32* %5, align 4
  %42 = load i32, i32* %2, align 4
  %43 = icmp sle i32 %41, %42
  br i1 %43, label %44, label %56

44:                                               ; preds = %40
  %45 = load i32, i32* %4, align 4
  %46 = sext i32 %45 to i64
  %47 = getelementptr inbounds [101 x [101 x i32*]], [101 x [101 x i32*]]* %1, i64 0, i64 %46
  %48 = load i32, i32* %5, align 4
  %49 = sext i32 %48 to i64
  %50 = getelementptr inbounds [101 x i32*], [101 x i32*]* %47, i64 0, i64 %49
  %51 = load i32*, i32** %50, align 8
  %52 = call i32 (i8*, ...) @__isoc99_scanf(i8* getelementptr inbounds ([3 x i8], [3 x i8]* @.str.1, i64 0, i64 0), i32* %51)
  br label %53

53:                                               ; preds = %44
  %54 = load i32, i32* %5, align 4
  %55 = add nsw i32 %54, 1
  store i32 %55, i32* %5, align 4
  br label %40

56:                                               ; preds = %40
  br label %57

57:                                               ; preds = %56
  %58 = load i32, i32* %4, align 4
  %59 = add nsw i32 %58, 1
  store i32 %59, i32* %4, align 4
  br label %35

60:                                               ; preds = %35
  store i32 1, i32* %5, align 4
  br label %61

61:                                               ; preds = %91, %60
  %62 = load i32, i32* %5, align 4
  %63 = load i32, i32* %2, align 4
  %64 = icmp sle i32 %62, %63
  br i1 %64, label %65, label %94

65:                                               ; preds = %61
  store i32 1, i32* %6, align 4
  %66 = load i32, i32* %5, align 4
  store i32 %66, i32* %7, align 4
  br label %67

67:                                               ; preds = %76, %65
  %68 = load i32, i32* %7, align 4
  %69 = icmp sge i32 %68, 1
  br i1 %69, label %70, label %74

70:                                               ; preds = %67
  %71 = load i32, i32* %6, align 4
  %72 = load i32, i32* %3, align 4
  %73 = icmp sle i32 %71, %72
  br label %74

74:                                               ; preds = %70, %67
  %75 = phi i1 [ false, %67 ], [ %73, %70 ]
  br i1 %75, label %76, label %90

76:                                               ; preds = %74
  %77 = load i32, i32* %6, align 4
  %78 = sext i32 %77 to i64
  %79 = getelementptr inbounds [101 x [101 x i32*]], [101 x [101 x i32*]]* %1, i64 0, i64 %78
  %80 = load i32, i32* %7, align 4
  %81 = sext i32 %80 to i64
  %82 = getelementptr inbounds [101 x i32*], [101 x i32*]* %79, i64 0, i64 %81
  %83 = load i32*, i32** %82, align 8
  %84 = load i32, i32* %83, align 4
  %85 = call i32 (i8*, ...) @printf(i8* getelementptr inbounds ([4 x i8], [4 x i8]* @.str.2, i64 0, i64 0), i32 %84)
  %86 = load i32, i32* %6, align 4
  %87 = add nsw i32 %86, 1
  store i32 %87, i32* %6, align 4
  %88 = load i32, i32* %7, align 4
  %89 = add nsw i32 %88, -1
  store i32 %89, i32* %7, align 4
  br label %67

90:                                               ; preds = %74
  br label %91

91:                                               ; preds = %90
  %92 = load i32, i32* %5, align 4
  %93 = add nsw i32 %92, 1
  store i32 %93, i32* %5, align 4
  br label %61

94:                                               ; preds = %61
  store i32 2, i32* %4, align 4
  br label %95

95:                                               ; preds = %126, %94
  %96 = load i32, i32* %4, align 4
  %97 = load i32, i32* %3, align 4
  %98 = icmp sle i32 %96, %97
  br i1 %98, label %99, label %129

99:                                               ; preds = %95
  %100 = load i32, i32* %2, align 4
  store i32 %100, i32* %7, align 4
  %101 = load i32, i32* %4, align 4
  store i32 %101, i32* %6, align 4
  br label %102

102:                                              ; preds = %111, %99
  %103 = load i32, i32* %7, align 4
  %104 = icmp sge i32 %103, 1
  br i1 %104, label %105, label %109

105:                                              ; preds = %102
  %106 = load i32, i32* %6, align 4
  %107 = load i32, i32* %3, align 4
  %108 = icmp sle i32 %106, %107
  br label %109

109:                                              ; preds = %105, %102
  %110 = phi i1 [ false, %102 ], [ %108, %105 ]
  br i1 %110, label %111, label %125

111:                                              ; preds = %109
  %112 = load i32, i32* %6, align 4
  %113 = sext i32 %112 to i64
  %114 = getelementptr inbounds [101 x [101 x i32*]], [101 x [101 x i32*]]* %1, i64 0, i64 %113
  %115 = load i32, i32* %7, align 4
  %116 = sext i32 %115 to i64
  %117 = getelementptr inbounds [101 x i32*], [101 x i32*]* %114, i64 0, i64 %116
  %118 = load i32*, i32** %117, align 8
  %119 = load i32, i32* %118, align 4
  %120 = call i32 (i8*, ...) @printf(i8* getelementptr inbounds ([4 x i8], [4 x i8]* @.str.2, i64 0, i64 0), i32 %119)
  %121 = load i32, i32* %6, align 4
  %122 = add nsw i32 %121, 1
  store i32 %122, i32* %6, align 4
  %123 = load i32, i32* %7, align 4
  %124 = add nsw i32 %123, -1
  store i32 %124, i32* %7, align 4
  br label %102

125:                                              ; preds = %109
  br label %126

126:                                              ; preds = %125
  %127 = load i32, i32* %4, align 4
  %128 = add nsw i32 %127, 1
  store i32 %128, i32* %4, align 4
  br label %95

129:                                              ; preds = %95
  ret void
}

declare dso_local i32 @__isoc99_scanf(i8*, ...) #1

; Function Attrs: nounwind
declare dso_local noalias i8* @malloc(i64) #2

declare dso_local i32 @printf(i8*, ...) #1


!llvm.module.flags = !{!0}
!llvm.ident = !{!1}

!0 = !{i32 1, !"wchar_size", i32 4}
!1 = !{!"clang version 10.0.0-4ubuntu1 "}
