; ModuleID = 'source-C-CXX/3/2102.c'
source_filename = "source-C-CXX/3/2102.c"
target datalayout = "e-m:e-p270:32:32-p271:32:32-p272:64:64-i64:64-f80:128-n8:16:32:64-S128"
target triple = "x86_64-pc-linux-gnu"

@.str = private unnamed_addr constant [6 x i8] c"%d %d\00", align 1
@.str.1 = private unnamed_addr constant [3 x i8] c"%d\00", align 1
@.str.2 = private unnamed_addr constant [4 x i8] c"%d\0A\00", align 1

; Function Attrs: nofree nounwind sspstrong uwtable
define dso_local void @main() local_unnamed_addr #0 {
  %1 = alloca [101 x [101 x i32*]], align 16
  %2 = alloca i32, align 4
  %3 = alloca i32, align 4
  %4 = bitcast [101 x [101 x i32*]]* %1 to i8*
  call void @llvm.lifetime.start.p0i8(i64 81608, i8* nonnull %4) #4
  %5 = bitcast i32* %2 to i8*
  call void @llvm.lifetime.start.p0i8(i64 4, i8* nonnull %5) #4
  %6 = bitcast i32* %3 to i8*
  call void @llvm.lifetime.start.p0i8(i64 4, i8* nonnull %6) #4
  %7 = call i32 (i8*, ...) @__isoc99_scanf(i8* getelementptr inbounds ([6 x i8], [6 x i8]* @.str, i64 0, i64 0), i32* nonnull %3, i32* nonnull %2)
  %8 = load i32, i32* %3, align 4, !tbaa !5
  %9 = load i32, i32* %2, align 4
  %10 = icmp slt i32 %8, 1
  br i1 %10, label %38, label %11

11:                                               ; preds = %0
  %12 = icmp slt i32 %9, 1
  br i1 %12, label %67, label %13

13:                                               ; preds = %11
  %14 = add nuw i32 %9, 1
  %15 = add nuw i32 %8, 1
  %16 = zext i32 %15 to i64
  %17 = zext i32 %14 to i64
  br label %18

18:                                               ; preds = %13, %30
  %19 = phi i64 [ 1, %13 ], [ %31, %30 ]
  br label %23

20:                                               ; preds = %30
  br i1 %10, label %38, label %21

21:                                               ; preds = %20
  %22 = icmp slt i32 %9, 1
  br i1 %22, label %67, label %33

23:                                               ; preds = %18, %23
  %24 = phi i64 [ 1, %18 ], [ %28, %23 ]
  %25 = call noalias align 16 dereferenceable_or_null(4) i8* @malloc(i64 4) #4
  %26 = getelementptr inbounds [101 x [101 x i32*]], [101 x [101 x i32*]]* %1, i64 0, i64 %19, i64 %24
  %27 = bitcast i32** %26 to i8**
  store i8* %25, i8** %27, align 8, !tbaa !9
  %28 = add nuw nsw i64 %24, 1
  %29 = icmp eq i64 %28, %17
  br i1 %29, label %30, label %23, !llvm.loop !11

30:                                               ; preds = %23
  %31 = add nuw nsw i64 %19, 1
  %32 = icmp eq i64 %31, %16
  br i1 %32, label %20, label %18, !llvm.loop !13

33:                                               ; preds = %21, %55
  %34 = phi i32 [ %56, %55 ], [ %8, %21 ]
  %35 = phi i32 [ %57, %55 ], [ %9, %21 ]
  %36 = phi i64 [ %58, %55 ], [ 1, %21 ]
  %37 = icmp slt i32 %35, 1
  br i1 %37, label %55, label %44

38:                                               ; preds = %55, %0, %20
  %39 = phi i32 [ %8, %20 ], [ %8, %0 ], [ %56, %55 ]
  %40 = phi i32 [ %9, %20 ], [ %9, %0 ], [ %57, %55 ]
  %41 = icmp slt i32 %40, 1
  br i1 %41, label %67, label %42

42:                                               ; preds = %38
  %43 = icmp sgt i32 %39, 0
  br i1 %43, label %61, label %124

44:                                               ; preds = %33, %44
  %45 = phi i64 [ %49, %44 ], [ 1, %33 ]
  %46 = getelementptr inbounds [101 x [101 x i32*]], [101 x [101 x i32*]]* %1, i64 0, i64 %36, i64 %45
  %47 = load i32*, i32** %46, align 8, !tbaa !9
  %48 = call i32 (i8*, ...) @__isoc99_scanf(i8* getelementptr inbounds ([3 x i8], [3 x i8]* @.str.1, i64 0, i64 0), i32* %47)
  %49 = add nuw nsw i64 %45, 1
  %50 = load i32, i32* %2, align 4, !tbaa !5
  %51 = sext i32 %50 to i64
  %52 = icmp slt i64 %45, %51
  br i1 %52, label %44, label %53, !llvm.loop !14

53:                                               ; preds = %44
  %54 = load i32, i32* %3, align 4, !tbaa !5
  br label %55

55:                                               ; preds = %53, %33
  %56 = phi i32 [ %54, %53 ], [ %34, %33 ]
  %57 = phi i32 [ %50, %53 ], [ %35, %33 ]
  %58 = add nuw nsw i64 %36, 1
  %59 = sext i32 %56 to i64
  %60 = icmp slt i64 %36, %59
  br i1 %60, label %33, label %38, !llvm.loop !15

61:                                               ; preds = %42, %87
  %62 = phi i32 [ %88, %87 ], [ %40, %42 ]
  %63 = phi i32 [ %89, %87 ], [ %39, %42 ]
  %64 = phi i64 [ %92, %87 ], [ 1, %42 ]
  %65 = phi i32 [ %90, %87 ], [ 1, %42 ]
  %66 = icmp sgt i32 %63, 0
  br i1 %66, label %71, label %87

67:                                               ; preds = %87, %11, %21, %38
  %68 = phi i32 [ %40, %38 ], [ %9, %21 ], [ %9, %11 ], [ %88, %87 ]
  %69 = phi i32 [ %39, %38 ], [ %8, %21 ], [ %8, %11 ], [ %89, %87 ]
  %70 = icmp slt i32 %69, 2
  br i1 %70, label %124, label %93

71:                                               ; preds = %61, %71
  %72 = phi i64 [ %78, %71 ], [ 1, %61 ]
  %73 = phi i64 [ %84, %71 ], [ %64, %61 ]
  %74 = getelementptr inbounds [101 x [101 x i32*]], [101 x [101 x i32*]]* %1, i64 0, i64 %72, i64 %73
  %75 = load i32*, i32** %74, align 8, !tbaa !9
  %76 = load i32, i32* %75, align 4, !tbaa !5
  %77 = call i32 (i8*, ...) @printf(i8* nonnull dereferenceable(1) getelementptr inbounds ([4 x i8], [4 x i8]* @.str.2, i64 0, i64 0), i32 %76)
  %78 = add nuw nsw i64 %72, 1
  %79 = icmp sgt i64 %73, 1
  %80 = load i32, i32* %3, align 4
  %81 = sext i32 %80 to i64
  %82 = icmp slt i64 %72, %81
  %83 = select i1 %79, i1 %82, i1 false
  %84 = add nsw i64 %73, -1
  br i1 %83, label %71, label %85, !llvm.loop !17

85:                                               ; preds = %71
  %86 = load i32, i32* %2, align 4, !tbaa !5
  br label %87

87:                                               ; preds = %85, %61
  %88 = phi i32 [ %86, %85 ], [ %62, %61 ]
  %89 = phi i32 [ %80, %85 ], [ %63, %61 ]
  %90 = add nuw nsw i32 %65, 1
  %91 = icmp slt i32 %65, %88
  %92 = add nuw nsw i64 %64, 1
  br i1 %91, label %61, label %67, !llvm.loop !18

93:                                               ; preds = %67, %120
  %94 = phi i32 [ %118, %120 ], [ %69, %67 ]
  %95 = phi i32 [ %123, %120 ], [ %68, %67 ]
  %96 = phi i64 [ %121, %120 ], [ 2, %67 ]
  %97 = phi i32 [ %122, %120 ], [ 2, %67 ]
  %98 = icmp sgt i32 %95, 0
  %99 = icmp sle i32 %97, %94
  %100 = select i1 %98, i1 %99, i1 false
  br i1 %100, label %101, label %117

101:                                              ; preds = %93
  %102 = zext i32 %95 to i64
  br label %103

103:                                              ; preds = %101, %103
  %104 = phi i64 [ %96, %101 ], [ %110, %103 ]
  %105 = phi i64 [ %102, %101 ], [ %116, %103 ]
  %106 = getelementptr inbounds [101 x [101 x i32*]], [101 x [101 x i32*]]* %1, i64 0, i64 %104, i64 %105
  %107 = load i32*, i32** %106, align 8, !tbaa !9
  %108 = load i32, i32* %107, align 4, !tbaa !5
  %109 = call i32 (i8*, ...) @printf(i8* nonnull dereferenceable(1) getelementptr inbounds ([4 x i8], [4 x i8]* @.str.2, i64 0, i64 0), i32 %108)
  %110 = add nuw nsw i64 %104, 1
  %111 = icmp sgt i64 %105, 1
  %112 = load i32, i32* %3, align 4
  %113 = sext i32 %112 to i64
  %114 = icmp slt i64 %104, %113
  %115 = select i1 %111, i1 %114, i1 false
  %116 = add nsw i64 %105, -1
  br i1 %115, label %103, label %117, !llvm.loop !19

117:                                              ; preds = %103, %93
  %118 = phi i32 [ %94, %93 ], [ %112, %103 ]
  %119 = icmp slt i32 %97, %118
  br i1 %119, label %120, label %124, !llvm.loop !20

120:                                              ; preds = %117
  %121 = add nuw nsw i64 %96, 1
  %122 = add nuw nsw i32 %97, 1
  %123 = load i32, i32* %2, align 4, !tbaa !5
  br label %93

124:                                              ; preds = %117, %42, %67
  call void @llvm.lifetime.end.p0i8(i64 4, i8* nonnull %6) #4
  call void @llvm.lifetime.end.p0i8(i64 4, i8* nonnull %5) #4
  call void @llvm.lifetime.end.p0i8(i64 81608, i8* nonnull %4) #4
  ret void
}

; Function Attrs: argmemonly mustprogress nofree nosync nounwind willreturn
declare void @llvm.lifetime.start.p0i8(i64 immarg, i8* nocapture) #1

; Function Attrs: nofree nounwind
declare noundef i32 @__isoc99_scanf(i8* nocapture noundef readonly, ...) local_unnamed_addr #2

; Function Attrs: inaccessiblememonly mustprogress nofree nounwind willreturn
declare noalias noundef align 16 i8* @malloc(i64 noundef) local_unnamed_addr #3

; Function Attrs: nofree nounwind
declare noundef i32 @printf(i8* nocapture noundef readonly, ...) local_unnamed_addr #2

; Function Attrs: argmemonly mustprogress nofree nosync nounwind willreturn
declare void @llvm.lifetime.end.p0i8(i64 immarg, i8* nocapture) #1


!llvm.module.flags = !{!0, !1, !2, !3}
!llvm.ident = !{!4}

!0 = !{i32 1, !"wchar_size", i32 4}
!1 = !{i32 7, !"PIC Level", i32 2}
!2 = !{i32 7, !"PIE Level", i32 2}
!3 = !{i32 7, !"uwtable", i32 1}
!4 = !{!"clang version 13.0.0"}
!5 = !{!6, !6, i64 0}
!6 = !{!"int", !7, i64 0}
!7 = !{!"omnipotent char", !8, i64 0}
!8 = !{!"Simple C/C++ TBAA"}
!9 = !{!10, !10, i64 0}
!10 = !{!"any pointer", !7, i64 0}
!11 = distinct !{!11, !12}
!12 = !{!"llvm.loop.mustprogress"}
!13 = distinct !{!13, !12}
!14 = distinct !{!14, !12}
!15 = distinct !{!15, !12, !16}
!16 = !{!"llvm.loop.unswitch.partial.disable"}
!17 = distinct !{!17, !12}
!18 = distinct !{!18, !12, !16}
!19 = distinct !{!19, !12}
!20 = distinct !{!20, !12}
